target datalayout = "e-m:e-p270:32:32-p271:32:32-p272:64:64-i64:64-i128:128-f80:128-n8:16:32:64-S128"
target triple = "x86_64-pc-linux-gnu"

%"class.icu_77::UObject" = type { ptr }
%"class.icu_77::Calendar" = type <{ %"class.icu_77::UObject", [24 x i32], [24 x i8], i8, [7 x i8], double, ptr, i8, i16, i8, i32, i32, i32, i8, i8, i16, [4 x i8], ptr, ptr }>

; Function Attrs: mustprogress nounwind uwtable
define noundef i32 @_ZNK6icu_778Calendar13resolveFieldsEPA12_A8_Ki(ptr noundef nonnull align 8 dereferenceable(192) %0, ptr noundef %1) #0 align 2 {
  %3 = alloca ptr, align 8
  %4 = alloca ptr, align 8
  %5 = alloca i32, align 4
  %6 = alloca i32, align 4
  %7 = alloca i32, align 4
  %8 = alloca i32, align 4
  %9 = alloca i32, align 4
  %10 = alloca i32, align 4
  %11 = alloca i32, align 4
  %12 = alloca i32, align 4
  %13 = alloca i32, align 4
  store ptr %0, ptr %3, align 8, !tbaa !37
  store ptr %1, ptr %4, align 8, !tbaa !20
  %14 = load ptr, ptr %3, align 8
  call void @llvm.lifetime.start.p0(i64 4, ptr %5) #16
  store i32 24, ptr %5, align 4, !tbaa !14
  call void @llvm.lifetime.start.p0(i64 4, ptr %6) #16
  call void @llvm.lifetime.start.p0(i64 4, ptr %7) #16
  store i32 0, ptr %7, align 4, !tbaa !14
  br label %15

15:                                               ; preds = %156, %2
  %16 = load ptr, ptr %4, align 8, !tbaa !20
  %17 = load i32, ptr %7, align 4, !tbaa !14
  %18 = sext i32 %17 to i64
  %19 = getelementptr inbounds [12 x [8 x i32]], ptr %16, i64 %18
  %20 = getelementptr inbounds [12 x [8 x i32]], ptr %19, i64 0, i64 0
  %21 = getelementptr inbounds [8 x i32], ptr %20, i64 0, i64 0
  %22 = load i32, ptr %21, align 4, !tbaa !14
  %23 = icmp ne i32 %22, -1
  br i1 %23, label %24, label %27

24:                                               ; preds = %15
  %25 = load i32, ptr %5, align 4, !tbaa !14
  %26 = icmp eq i32 %25, 24
  br label %27

27:                                               ; preds = %24, %15
  %28 = phi i1 [ false, %15 ], [ %26, %24 ]
  br i1 %28, label %30, label %29

29:                                               ; preds = %27
  store i32 2, ptr %8, align 4
  call void @llvm.lifetime.end.p0(i64 4, ptr %7) #16
  br label %159

30:                                               ; preds = %27
  call void @llvm.lifetime.start.p0(i64 4, ptr %9) #16
  store i32 0, ptr %9, align 4, !tbaa !14
  call void @llvm.lifetime.start.p0(i64 4, ptr %10) #16
  store i32 0, ptr %10, align 4, !tbaa !14
  br label %31

31:                                               ; preds = %152, %30
  %32 = load ptr, ptr %4, align 8, !tbaa !20
  %33 = load i32, ptr %7, align 4, !tbaa !14
  %34 = sext i32 %33 to i64
  %35 = getelementptr inbounds [12 x [8 x i32]], ptr %32, i64 %34
  %36 = load i32, ptr %10, align 4, !tbaa !14
  %37 = sext i32 %36 to i64
  %38 = getelementptr inbounds [12 x [8 x i32]], ptr %35, i64 0, i64 %37
  %39 = getelementptr inbounds [8 x i32], ptr %38, i64 0, i64 0
  %40 = load i32, ptr %39, align 4, !tbaa !14
  %41 = icmp ne i32 %40, -1
  br i1 %41, label %43, label %42

42:                                               ; preds = %31
  store i32 5, ptr %8, align 4
  call void @llvm.lifetime.end.p0(i64 4, ptr %10) #16
  br label %155

43:                                               ; preds = %31
  call void @llvm.lifetime.start.p0(i64 4, ptr %11) #16
  store i32 0, ptr %11, align 4, !tbaa !14
  call void @llvm.lifetime.start.p0(i64 4, ptr %12) #16
  %44 = load ptr, ptr %4, align 8, !tbaa !20
  %45 = load i32, ptr %7, align 4, !tbaa !14
  %46 = sext i32 %45 to i64
  %47 = getelementptr inbounds [12 x [8 x i32]], ptr %44, i64 %46
  %48 = load i32, ptr %10, align 4, !tbaa !14
  %49 = sext i32 %48 to i64
  %50 = getelementptr inbounds [12 x [8 x i32]], ptr %47, i64 0, i64 %49
  %51 = getelementptr inbounds [8 x i32], ptr %50, i64 0, i64 0
  %52 = load i32, ptr %51, align 4, !tbaa !14
  %53 = icmp sge i32 %52, 32
  %54 = select i1 %53, i32 1, i32 0
  store i32 %54, ptr %12, align 4, !tbaa !14
  br label %55

55:                                               ; preds = %100, %43
  %56 = load ptr, ptr %4, align 8, !tbaa !20
  %57 = load i32, ptr %7, align 4, !tbaa !14
  %58 = sext i32 %57 to i64
  %59 = getelementptr inbounds [12 x [8 x i32]], ptr %56, i64 %58
  %60 = load i32, ptr %10, align 4, !tbaa !14
  %61 = sext i32 %60 to i64
  %62 = getelementptr inbounds [12 x [8 x i32]], ptr %59, i64 0, i64 %61
  %63 = load i32, ptr %12, align 4, !tbaa !14
  %64 = sext i32 %63 to i64
  %65 = getelementptr inbounds [8 x i32], ptr %62, i64 0, i64 %64
  %66 = load i32, ptr %65, align 4, !tbaa !14
  %67 = icmp ne i32 %66, -1
  br i1 %67, label %69, label %68

68:                                               ; preds = %55
  store i32 8, ptr %8, align 4
  br label %103

69:                                               ; preds = %55
  call void @llvm.lifetime.start.p0(i64 4, ptr %13) #16
  %70 = getelementptr inbounds nuw %"class.icu_77::Calendar", ptr %14, i32 0, i32 2
  %71 = load ptr, ptr %4, align 8, !tbaa !20
  %72 = load i32, ptr %7, align 4, !tbaa !14
  %73 = sext i32 %72 to i64
  %74 = getelementptr inbounds [12 x [8 x i32]], ptr %71, i64 %73
  %75 = load i32, ptr %10, align 4, !tbaa !14
  %76 = sext i32 %75 to i64
  %77 = getelementptr inbounds [12 x [8 x i32]], ptr %74, i64 0, i64 %76
  %78 = load i32, ptr %12, align 4, !tbaa !14
  %79 = sext i32 %78 to i64
  %80 = getelementptr inbounds [8 x i32], ptr %77, i64 0, i64 %79
  %81 = load i32, ptr %80, align 4, !tbaa !14
  %82 = sext i32 %81 to i64
  %83 = getelementptr inbounds [24 x i8], ptr %70, i64 0, i64 %82
  %84 = load i8, ptr %83, align 1, !tbaa !70
  %85 = sext i8 %84 to i32
  store i32 %85, ptr %13, align 4, !tbaa !14
  %86 = load i32, ptr %13, align 4, !tbaa !14
  %87 = icmp eq i32 %86, 0
  br i1 %87, label %88, label %89

88:                                               ; preds = %69
  store i32 11, ptr %8, align 4
  br label %97

89:                                               ; preds = %69
  %90 = load i32, ptr %13, align 4, !tbaa !14
  %91 = load i32, ptr %11, align 4, !tbaa !14
  %92 = icmp sgt i32 %90, %91
  br i1 %92, label %93, label %95

93:                                               ; preds = %89
  %94 = load i32, ptr %13, align 4, !tbaa !14
  store i32 %94, ptr %11, align 4, !tbaa !14
  br label %95

95:                                               ; preds = %93, %89
  br label %96

96:                                               ; preds = %95
  store i32 0, ptr %8, align 4
  br label %97

97:                                               ; preds = %88, %96
  call void @llvm.lifetime.end.p0(i64 4, ptr %13) #16
  %98 = load i32, ptr %8, align 4
  switch i32 %98, label %103 [
    i32 0, label %99
  ]

99:                                               ; preds = %97
  br label %100

100:                                              ; preds = %99
  %101 = load i32, ptr %12, align 4, !tbaa !14
  %102 = add nsw i32 %101, 1
  store i32 %102, ptr %12, align 4, !tbaa !14
  br label %55, !llvm.loop !135

103:                                              ; preds = %97, %68
  call void @llvm.lifetime.end.p0(i64 4, ptr %12) #16
  %104 = load i32, ptr %8, align 4
  switch i32 %104, label %161 [
    i32 8, label %105
    i32 11, label %151
  ]

105:                                              ; preds = %103
  %106 = load i32, ptr %11, align 4, !tbaa !14
  %107 = load i32, ptr %9, align 4, !tbaa !14
  %108 = icmp sgt i32 %106, %107
  br i1 %108, label %109, label %150

109:                                              ; preds = %105
  %110 = load ptr, ptr %4, align 8, !tbaa !20
  %111 = load i32, ptr %7, align 4, !tbaa !14
  %112 = sext i32 %111 to i64
  %113 = getelementptr inbounds [12 x [8 x i32]], ptr %110, i64 %112
  %114 = load i32, ptr %10, align 4, !tbaa !14
  %115 = sext i32 %114 to i64
  %116 = getelementptr inbounds [12 x [8 x i32]], ptr %113, i64 0, i64 %115
  %117 = getelementptr inbounds [8 x i32], ptr %116, i64 0, i64 0
  %118 = load i32, ptr %117, align 4, !tbaa !14
  store i32 %118, ptr %6, align 4, !tbaa !14
  %119 = load i32, ptr %6, align 4, !tbaa !14
  %120 = icmp sge i32 %119, 32
  br i1 %120, label %121, label %141

121:                                              ; preds = %109
  %122 = load i32, ptr %6, align 4, !tbaa !14
  %123 = and i32 %122, 31
  store i32 %123, ptr %6, align 4, !tbaa !14
  %124 = load i32, ptr %6, align 4, !tbaa !14
  %125 = icmp ne i32 %124, 5
  br i1 %125, label %138, label %126

126:                                              ; preds = %121
  %127 = getelementptr inbounds nuw %"class.icu_77::Calendar", ptr %14, i32 0, i32 2
  %128 = getelementptr inbounds nuw [24 x i8], ptr %127, i64 0, i64 4
  %129 = load i8, ptr %128, align 4, !tbaa !70
  %130 = sext i8 %129 to i32
  %131 = getelementptr inbounds nuw %"class.icu_77::Calendar", ptr %14, i32 0, i32 2
  %132 = load i32, ptr %6, align 4, !tbaa !14
  %133 = sext i32 %132 to i64
  %134 = getelementptr inbounds [24 x i8], ptr %131, i64 0, i64 %133
  %135 = load i8, ptr %134, align 1, !tbaa !70
  %136 = sext i8 %135 to i32
  %137 = icmp slt i32 %130, %136
  br i1 %137, label %138, label %140

138:                                              ; preds = %126, %121
  %139 = load i32, ptr %6, align 4, !tbaa !14
  store i32 %139, ptr %5, align 4, !tbaa !14
  br label %140

140:                                              ; preds = %138, %126
  br label %143

141:                                              ; preds = %109
  %142 = load i32, ptr %6, align 4, !tbaa !14
  store i32 %142, ptr %5, align 4, !tbaa !14
  br label %143

143:                                              ; preds = %141, %140
  %144 = load i32, ptr %5, align 4, !tbaa !14
  %145 = load i32, ptr %6, align 4, !tbaa !14
  %146 = icmp eq i32 %144, %145
  br i1 %146, label %147, label %149

147:                                              ; preds = %143
  %148 = load i32, ptr %11, align 4, !tbaa !14
  store i32 %148, ptr %9, align 4, !tbaa !14
  br label %149

149:                                              ; preds = %147, %143
  br label %150

150:                                              ; preds = %149, %105
  br label %151

151:                                              ; preds = %150, %103
  call void @llvm.lifetime.end.p0(i64 4, ptr %11) #16
  br label %152

152:                                              ; preds = %151
  %153 = load i32, ptr %10, align 4, !tbaa !14
  %154 = add nsw i32 %153, 1
  store i32 %154, ptr %10, align 4, !tbaa !14
  br label %31, !llvm.loop !136

155:                                              ; preds = %42
  call void @llvm.lifetime.end.p0(i64 4, ptr %9) #16
  br label %156

156:                                              ; preds = %155
  %157 = load i32, ptr %7, align 4, !tbaa !14
  %158 = add nsw i32 %157, 1
  store i32 %158, ptr %7, align 4, !tbaa !14
  br label %15, !llvm.loop !137

159:                                              ; preds = %29
  %160 = load i32, ptr %5, align 4, !tbaa !14
  store i32 1, ptr %8, align 4
  call void @llvm.lifetime.end.p0(i64 4, ptr %6) #16
  call void @llvm.lifetime.end.p0(i64 4, ptr %5) #16
  ret i32 %160

161:                                              ; preds = %103
  unreachable
}