; Function Attrs: mustprogress nofree norecurse nosync nounwind willreturn memory(argmem: read) uwtable
define noundef range(i32 -2147483648, 32) i32 @_ZNK6icu_778Calendar13resolveFieldsEPA12_A8_Ki(ptr noundef nonnull readonly align 8 captures(none) dereferenceable(192) %0, ptr noundef readonly captures(none) %1) local_unnamed_addr #18 align 2 {
  %3 = load i32, ptr %1, align 4, !tbaa !12
  %.not89 = icmp eq i32 %3, -1
  br i1 %.not89, label %._crit_edge85, label %.preheader.lr.ph

.preheader.lr.ph:                                 ; preds = %2
  %4 = getelementptr inbounds nuw i8, ptr %0, i64 104
  %5 = getelementptr inbounds nuw i8, ptr %0, i64 108
  %6 = load i8, ptr %5, align 4
  %7 = getelementptr inbounds nuw i8, ptr %0, i64 109
  %8 = load i8, ptr %7, align 1
  %9 = icmp slt i8 %6, %8
  %.fr = freeze i1 %9
  br i1 %.fr, label %.preheader.us, label %.preheader

.preheader.us:                                    ; preds = %.preheader.lr.ph, %._crit_edge76.split.us.us
  %indvars.iv105 = phi i64 [ %indvars.iv.next106, %._crit_edge76.split.us.us ], [ 0, %.preheader.lr.ph ]
  %10 = getelementptr inbounds nuw [12 x [8 x i32]], ptr %1, i64 %indvars.iv105, i64 0
  %11 = load i32, ptr %10, align 4, !tbaa !12
  %.not71.us = icmp eq i32 %11, -1
  br i1 %.not71.us, label %._crit_edge76.split.us.us, label %.lr.ph75.us

._crit_edge76.split.us.us:                        ; preds = %._crit_edge.us.us, %.preheader.us
  %.1.lcssa.us = phi i32 [ 24, %.preheader.us ], [ %.2.us.us, %._crit_edge.us.us ]
  %indvars.iv.next106 = add nuw nsw i64 %indvars.iv105, 1
  %12 = getelementptr inbounds nuw [12 x [8 x i32]], ptr %1, i64 %indvars.iv.next106
  %13 = load i32, ptr %12, align 4, !tbaa !12
  %14 = icmp ne i32 %13, -1
  %15 = icmp eq i32 %.1.lcssa.us, 24
  %16 = select i1 %14, i1 %15, i1 false
  br i1 %16, label %.preheader.us, label %._crit_edge85, !llvm.loop !82

.lr.ph75.us:                                      ; preds = %.preheader.us, %._crit_edge.us.us
  %indvars.iv102 = phi i64 [ %indvars.iv.next103, %._crit_edge.us.us ], [ 0, %.preheader.us ]
  %17 = phi i32 [ %33, %._crit_edge.us.us ], [ %11, %.preheader.us ]
  %.174.us.us = phi i32 [ %.2.us.us, %._crit_edge.us.us ], [ 24, %.preheader.us ]
  %.04772.us.us = phi i32 [ %.148.us.us, %._crit_edge.us.us ], [ 0, %.preheader.us ]
  %18 = icmp sgt i32 %17, 31
  %19 = zext i1 %18 to i64
  %20 = getelementptr inbounds nuw [12 x [8 x i32]], ptr %1, i64 %indvars.iv105, i64 %indvars.iv102, i64 %19
  %21 = load i32, ptr %20, align 4, !tbaa !12
  %.not5963.us.us = icmp eq i32 %21, -1
  br i1 %.not5963.us.us, label %._crit_edge.us.us, label %.lr.ph.us.us

22:                                               ; preds = %.lr.ph81.us
  %23 = sext i32 %29 to i64
  %24 = getelementptr inbounds [24 x i8], ptr %4, i64 0, i64 %23
  %25 = load i8, ptr %24, align 1, !tbaa !47
  %.not60.us.us = icmp eq i8 %25, 0
  br i1 %.not60.us.us, label %._crit_edge.us.us, label %.lr.ph81.us, !llvm.loop !83

.lr.ph81.us:                                      ; preds = %.lr.ph.us.us, %22
  %indvars.iv100 = phi i64 [ %indvars.iv.next101, %22 ], [ %19, %.lr.ph.us.us ]
  %26 = phi i8 [ %25, %22 ], [ %36, %.lr.ph.us.us ]
  %.04264.us80.us = phi i32 [ %spec.select.us.us, %22 ], [ 0, %.lr.ph.us.us ]
  %27 = sext i8 %26 to i32
  %spec.select.us.us = tail call i32 @llvm.smax.i32(i32 %.04264.us80.us, i32 %27)
  %indvars.iv.next101 = add nuw nsw i64 %indvars.iv100, 1
  %28 = getelementptr inbounds nuw [12 x [8 x i32]], ptr %1, i64 %indvars.iv105, i64 %indvars.iv102, i64 %indvars.iv.next101
  %29 = load i32, ptr %28, align 4, !tbaa !12
  %.not59.us.us = icmp eq i32 %29, -1
  br i1 %.not59.us.us, label %._crit_edge.us.us, label %22, !llvm.loop !83

._crit_edge.us.us:                                ; preds = %22, %.lr.ph81.us, %.lr.ph.us.us, %.lr.ph75.us
  %.042.lcssa.us.us = phi i32 [ 0, %.lr.ph75.us ], [ 0, %.lr.ph.us.us ], [ %spec.select.us.us, %.lr.ph81.us ], [ %spec.select.us.us, %22 ]
  %.not59.lcssa.us.us = phi i1 [ true, %.lr.ph75.us ], [ false, %.lr.ph.us.us ], [ %.not59.us.us, %.lr.ph81.us ], [ %.not59.us.us, %22 ]
  %30 = icmp sgt i32 %.042.lcssa.us.us, %.04772.us.us
  %or.cond.us.us = select i1 %.not59.lcssa.us.us, i1 %30, i1 false
  %31 = and i32 %17, 31
  %spec.select88 = select i1 %18, i32 %31, i32 %17
  %.148.us.us = select i1 %or.cond.us.us, i32 %.042.lcssa.us.us, i32 %.04772.us.us
  %.2.us.us = select i1 %or.cond.us.us, i32 %spec.select88, i32 %.174.us.us
  %indvars.iv.next103 = add nuw nsw i64 %indvars.iv102, 1
  %32 = getelementptr inbounds nuw [12 x [8 x i32]], ptr %1, i64 %indvars.iv105, i64 %indvars.iv.next103
  %33 = load i32, ptr %32, align 4, !tbaa !12
  %.not.us.us = icmp eq i32 %33, -1
  br i1 %.not.us.us, label %._crit_edge76.split.us.us, label %.lr.ph75.us, !llvm.loop !84

.lr.ph.us.us:                                     ; preds = %.lr.ph75.us
  %34 = sext i32 %21 to i64
  %35 = getelementptr inbounds [24 x i8], ptr %4, i64 0, i64 %34
  %36 = load i8, ptr %35, align 1, !tbaa !47
  %.not60.us78.us = icmp eq i8 %36, 0
  br i1 %.not60.us78.us, label %._crit_edge.us.us, label %.lr.ph81.us

.preheader:                                       ; preds = %.preheader.lr.ph, %._crit_edge76.split
  %indvars.iv97 = phi i64 [ %indvars.iv.next98, %._crit_edge76.split ], [ 0, %.preheader.lr.ph ]
  %37 = getelementptr inbounds nuw [12 x [8 x i32]], ptr %1, i64 %indvars.iv97, i64 0
  %38 = load i32, ptr %37, align 4, !tbaa !12
  %.not71 = icmp eq i32 %38, -1
  br i1 %.not71, label %._crit_edge76.split, label %.lr.ph75

._crit_edge85:                                    ; preds = %._crit_edge76.split, %._crit_edge76.split.us.us, %2
  %.0.lcssa = phi i32 [ 24, %2 ], [ %.1.lcssa.us, %._crit_edge76.split.us.us ], [ %.1.lcssa, %._crit_edge76.split ]
  ret i32 %.0.lcssa

._crit_edge76.split:                              ; preds = %._crit_edge.thread, %.preheader
  %.1.lcssa = phi i32 [ 24, %.preheader ], [ %.2, %._crit_edge.thread ]
  %indvars.iv.next98 = add nuw nsw i64 %indvars.iv97, 1
  %39 = getelementptr inbounds nuw [12 x [8 x i32]], ptr %1, i64 %indvars.iv.next98
  %40 = load i32, ptr %39, align 4, !tbaa !12
  %41 = icmp ne i32 %40, -1
  %42 = icmp eq i32 %.1.lcssa, 24
  %43 = select i1 %41, i1 %42, i1 false
  br i1 %43, label %.preheader, label %._crit_edge85, !llvm.loop !82

.lr.ph75:                                         ; preds = %.preheader, %._crit_edge.thread
  %indvars.iv94 = phi i64 [ %indvars.iv.next95, %._crit_edge.thread ], [ 0, %.preheader ]
  %44 = phi i32 [ %62, %._crit_edge.thread ], [ %38, %.preheader ]
  %.174 = phi i32 [ %.2, %._crit_edge.thread ], [ 24, %.preheader ]
  %.04772 = phi i32 [ %.148, %._crit_edge.thread ], [ 0, %.preheader ]
  %45 = icmp sgt i32 %44, 31
  %46 = zext i1 %45 to i64
  %47 = getelementptr inbounds nuw [12 x [8 x i32]], ptr %1, i64 %indvars.iv97, i64 %indvars.iv94, i64 %46
  %48 = load i32, ptr %47, align 4, !tbaa !12
  %.not5963 = icmp eq i32 %48, -1
  br i1 %.not5963, label %._crit_edge, label %.lr.ph

.lr.ph:                                           ; preds = %.lr.ph75, %53
  %indvars.iv = phi i64 [ %indvars.iv.next, %53 ], [ %46, %.lr.ph75 ]
  %49 = phi i32 [ %56, %53 ], [ %48, %.lr.ph75 ]
  %.04264 = phi i32 [ %spec.select, %53 ], [ 0, %.lr.ph75 ]
  %50 = sext i32 %49 to i64
  %51 = getelementptr inbounds [24 x i8], ptr %4, i64 0, i64 %50
  %52 = load i8, ptr %51, align 1, !tbaa !47
  %.not60.not = icmp eq i8 %52, 0
  br i1 %.not60.not, label %._crit_edge.thread, label %53

53:                                               ; preds = %.lr.ph
  %54 = sext i8 %52 to i32
  %spec.select = tail call i32 @llvm.smax.i32(i32 %.04264, i32 %54)
  %indvars.iv.next = add nuw nsw i64 %indvars.iv, 1
  %55 = getelementptr inbounds nuw [12 x [8 x i32]], ptr %1, i64 %indvars.iv97, i64 %indvars.iv94, i64 %indvars.iv.next
  %56 = load i32, ptr %55, align 4, !tbaa !12
  %.not59 = icmp eq i32 %56, -1
  br i1 %.not59, label %._crit_edge, label %.lr.ph, !llvm.loop !83

._crit_edge:                                      ; preds = %53, %.lr.ph75
  %.042.lcssa = phi i32 [ 0, %.lr.ph75 ], [ %spec.select, %53 ]
  %57 = icmp sgt i32 %.042.lcssa, %.04772
  br i1 %57, label %58, label %._crit_edge.thread

58:                                               ; preds = %._crit_edge
  %59 = and i32 %44, 31
  %.not61 = icmp eq i32 %59, 5
  %.174. = select i1 %.not61, i32 %.174, i32 %59
  %.3 = select i1 %45, i32 %.174., i32 %44
  %60 = icmp ne i32 %.174., %59
  %.not91 = select i1 %45, i1 %60, i1 false
  %spec.select62 = select i1 %.not91, i32 %.04772, i32 %.042.lcssa
  br label %._crit_edge.thread

._crit_edge.thread:                               ; preds = %.lr.ph, %58, %._crit_edge
  %.148 = phi i32 [ %.04772, %._crit_edge ], [ %spec.select62, %58 ], [ %.04772, %.lr.ph ]
  %.2 = phi i32 [ %.174, %._crit_edge ], [ %.3, %58 ], [ %.174, %.lr.ph ]
  %indvars.iv.next95 = add nuw nsw i64 %indvars.iv94, 1
  %61 = getelementptr inbounds nuw [12 x [8 x i32]], ptr %1, i64 %indvars.iv97, i64 %indvars.iv.next95
  %62 = load i32, ptr %61, align 4, !tbaa !12
  %.not = icmp eq i32 %62, -1
  br i1 %.not, label %._crit_edge76.split, label %.lr.ph75, !llvm.loop !84
}